target datalayout = "e-m:e-p270:32:32-p271:32:32-p272:64:64-i64:64-i128:128-f80:128-n8:16:32:64-S128"
target triple = "x86_64-pc-linux-gnu"

%struct.AVRational = type { i32, i32 }
%struct.SyncQueue = type { i32, ptr, i32, i32, i32, i64, ptr, i32, i32, i64 }
%struct.SyncQueueStream = type { ptr, %struct.AVRational, i64, i64, i32, i32, i64, i64, i64, i32 }

@.str = private unnamed_addr constant [30 x i8] c"Assertion %s failed at %s:%d\0A\00", align 1
@.str.1 = private unnamed_addr constant [28 x i8] c"stream_idx < sq->nb_streams\00", align 1
@.str.2 = private unnamed_addr constant [21 x i8] c"fftools/sync_queue.c\00", align 1

; Function Attrs: nounwind uwtable
define void @sq_limit_frames(ptr noundef %0, i32 noundef %1, i64 noundef %2) #0 {
  %4 = alloca ptr, align 8
  %5 = alloca i32, align 4
  %6 = alloca i64, align 8
  %7 = alloca ptr, align 8
  store ptr %0, ptr %4, align 8, !tbaa !4
  store i32 %1, ptr %5, align 4, !tbaa !9
  store i64 %2, ptr %6, align 8, !tbaa !35
  call void @llvm.lifetime.start.p0(i64 8, ptr %7) #8
  br label %8

8:                                                ; preds = %3
  %9 = load i32, ptr %5, align 4, !tbaa !9
  %10 = load ptr, ptr %4, align 8, !tbaa !4
  %11 = getelementptr inbounds nuw %struct.SyncQueue, ptr %10, i32 0, i32 7
  %12 = load i32, ptr %11, align 8, !tbaa !11
  %13 = icmp ult i32 %9, %12
  br i1 %13, label %15, label %14

14:                                               ; preds = %8
  call void (ptr, i32, ptr, ...) @av_log(ptr noundef null, i32 noundef 0, ptr noundef @.str, ptr noundef @.str.1, ptr noundef @.str.2, i32 noundef 632)
  call void @abort() #9
  unreachable

15:                                               ; preds = %8
  br label %16

16:                                               ; preds = %15
  br label %17

17:                                               ; preds = %16
  %18 = load ptr, ptr %4, align 8, !tbaa !4
  %19 = getelementptr inbounds nuw %struct.SyncQueue, ptr %18, i32 0, i32 6
  %20 = load ptr, ptr %19, align 8, !tbaa !15
  %21 = load i32, ptr %5, align 4, !tbaa !9
  %22 = zext i32 %21 to i64
  %23 = getelementptr inbounds nuw %struct.SyncQueueStream, ptr %20, i64 %22
  store ptr %23, ptr %7, align 8, !tbaa !16
  %24 = load i64, ptr %6, align 8, !tbaa !35
  %25 = load ptr, ptr %7, align 8, !tbaa !16
  %26 = getelementptr inbounds nuw %struct.SyncQueueStream, ptr %25, i32 0, i32 8
  store i64 %24, ptr %26, align 8, !tbaa !42
  %27 = load ptr, ptr %7, align 8, !tbaa !16
  %28 = getelementptr inbounds nuw %struct.SyncQueueStream, ptr %27, i32 0, i32 6
  %29 = load i64, ptr %28, align 8, !tbaa !41
  %30 = load ptr, ptr %7, align 8, !tbaa !16
  %31 = getelementptr inbounds nuw %struct.SyncQueueStream, ptr %30, i32 0, i32 8
  %32 = load i64, ptr %31, align 8, !tbaa !42
  %33 = icmp uge i64 %29, %32
  br i1 %33, label %34, label %37

34:                                               ; preds = %17
  %35 = load ptr, ptr %4, align 8, !tbaa !4
  %36 = load i32, ptr %5, align 4, !tbaa !9
  call void @finish_stream(ptr noundef %35, i32 noundef %36)
  br label %37

37:                                               ; preds = %34, %17
  call void @llvm.lifetime.end.p0(i64 8, ptr %7) #8
  ret void
}