; Function Attrs: nounwind uwtable
define void @sq_limit_frames(ptr noundef captures(none) %0, i32 noundef %1, i64 noundef %2) local_unnamed_addr #0 {
  %4 = getelementptr inbounds nuw i8, ptr %0, i64 48
  %5 = load i32, ptr %4, align 8, !tbaa !4
  %6 = icmp ult i32 %1, %5
  br i1 %6, label %8, label %7

7:                                                ; preds = %3
  tail call void (ptr, i32, ptr, ...) @av_log(ptr noundef null, i32 noundef 0, ptr noundef nonnull @.str, ptr noundef nonnull @.str.1, ptr noundef nonnull @.str.2, i32 noundef 632) #7
  tail call void @abort() #8
  unreachable

8:                                                ; preds = %3
  %9 = getelementptr inbounds nuw i8, ptr %0, i64 40
  %10 = load ptr, ptr %9, align 8, !tbaa !12
  %11 = zext i32 %1 to i64
  %12 = getelementptr inbounds nuw %struct.SyncQueueStream, ptr %10, i64 %11
  %13 = getelementptr inbounds nuw i8, ptr %12, i64 56
  store i64 %2, ptr %13, align 8, !tbaa !40
  %14 = getelementptr inbounds nuw i8, ptr %12, i64 40
  %15 = load i64, ptr %14, align 8, !tbaa !39
  %.not = icmp ult i64 %15, %2
  br i1 %.not, label %17, label %16

16:                                               ; preds = %8
  tail call fastcc void @finish_stream(ptr noundef nonnull %0, i32 noundef %1)
  br label %17

17:                                               ; preds = %16, %8
  ret void
}